target datalayout = "e-m:e-p270:32:32-p271:32:32-p272:64:64-i64:64-i128:128-f80:128-n8:16:32:64-S128"
target triple = "x86_64-pc-linux-gnu"

%union.pthread_cond_t = type { %struct.__pthread_cond_s }
%struct.__pthread_cond_s = type { %union.__atomic_wide_counter, %union.__atomic_wide_counter, [2 x i32], [2 x i32], i32, i32, [2 x i32] }
%union.__atomic_wide_counter = type { i64 }
%union.pthread_mutex_t = type { %struct.__pthread_mutex_s }
%struct.__pthread_mutex_s = type { i32, i32, i32, i32, i32, i16, i16, %struct.__pthread_internal_list }
%struct.__pthread_internal_list = type { ptr, ptr }
%struct.stepd_step_rec_t = type { ptr, ptr, i32, %union.pthread_cond_t, %union.pthread_mutex_t, %struct.slurm_step_id_msg, i32, i32, i32, i32, i32, i32, ptr, ptr, i32, i32, ptr, i32, i32, i32, i32, i32, ptr, ptr, ptr, ptr, i32, i32, i64, i64, i16, i32, ptr, ptr, ptr, i32, ptr, i32, ptr, i32, ptr, i16, i32, i32, i32, ptr, i32, ptr, ptr, ptr, ptr, i32, i32, ptr, ptr, i8, i8, i8, i64, i32, ptr, ptr, ptr, ptr, ptr, ptr, ptr, ptr, ptr, ptr, i32, i32, ptr, i8, %union.pthread_cond_t, %union.pthread_mutex_t, i64, ptr, i32, i32, i32, ptr, i64, ptr, ptr, i8, ptr, i16, ptr, ptr, ptr, ptr, ptr, ptr, i64, ptr, i64, ptr, i16, i8, i16, i32, ptr, i16, ptr, ptr, i16, ptr, ptr, ptr, i8 }
%struct.slurm_step_id_msg = type { i64, i32, i32, i32 }
%struct.env_options = type { i32, ptr, i8, i8, i32, i16, i32, ptr, i32, i32, i32, i32, ptr, i8, i32, i8, i32, ptr, ptr, ptr, i16, ptr, ptr, i32, i32, i32, i32, i32, i32, i32, i32, i32, i32, i32, i16, i32, i32, ptr, i16, i16, i16, i16, i16, i32, ptr, i32, ptr, ptr, ptr, ptr, i64, ptr, i64, i16 }
%struct.launch_tasks_request_msg = type { i32, i32, i32, i32, ptr, ptr, ptr, i32, i32, i32, ptr, i32, i32, i32, i16, i16, i16, i16, i32, ptr, i64, %struct.slurm_step_id_msg, i64, ptr, i32, i32, i16, i16, ptr, i32, ptr, i16, ptr, ptr, ptr, ptr, ptr, i16, ptr, i16, ptr, i16, ptr, ptr, i16, ptr, i32, i32, ptr, %struct.sockaddr_storage, i8, ptr, i32, i32, i32, i16, ptr, ptr, ptr, i16, ptr, i32, ptr, ptr, i16, i16, ptr, ptr, ptr, ptr, ptr, i32, ptr, i16, ptr, i16, ptr, ptr, i16, ptr, ptr, ptr, ptr, i8 }
%struct.sockaddr_storage = type { i16, [118 x i8], i64 }
%struct.slurm_msg = type { %struct.sockaddr_storage, ptr, i32, i32, i32, i8, i32, i8, i32, ptr, ptr, i32, ptr, ptr, i16, i8, i16, i16, %struct.forward, ptr, %struct.sockaddr_storage, ptr }
%struct.forward = type { %struct.slurm_node_alias_addrs_t, i16, i16, ptr, i32, i16, i16 }
%struct.slurm_node_alias_addrs_t = type { i64, ptr, ptr, i32, ptr }
%struct.launch_tasks_response_msg = type { i32, ptr, i32, i32, ptr, %struct.slurm_step_id_msg, ptr }
%struct.slurmd_config = type { ptr, ptr, i32, [4096 x i8], ptr, ptr, ptr, ptr, i16, i16, i16, i16, ptr, i16, i64, i16, i16, i16, i16, i16, i16, i16, i16, i16, i16, i16, i64, i64, i32, i32, i16, ptr, ptr, ptr, i32, ptr, ptr, ptr, ptr, ptr, ptr, ptr, ptr, ptr, ptr, i32, ptr, ptr, i16, i32, i32, %struct.log_options_t, i32, i16, i64, i8, i8, i8, i8, i8, %union.pthread_mutex_t, i16, ptr, %union.pthread_cond_t, ptr, %union.pthread_cond_t, i8, i8, ptr, ptr }
%struct.log_options_t = type { i32, i32, i32, i8, i8, i8, i32 }
%struct.slurm_cred_arg_t = type { %struct.slurm_step_id_msg, i32, i32, ptr, i16, ptr, ptr, ptr, i32, ptr, ptr, ptr, ptr, ptr, ptr, ptr, i16, i64, ptr, ptr, ptr, ptr, ptr, i32, i32, ptr, i32, i16, ptr, ptr, ptr, i16, ptr, i64, ptr, ptr, ptr, i16, ptr, ptr, ptr, ptr, i32, ptr, ptr }

@conf = external global ptr, align 8
@.str.208 = private unnamed_addr constant [60 x i8] c"%s: The extern step has nothing to send a launch failure to\00", align 1
@__func__._send_launch_failure = private unnamed_addr constant [21 x i8] c"_send_launch_failure\00", align 1
@.str.209 = private unnamed_addr constant [35 x i8] c"sending launch failure message: %s\00", align 1
@.str.210 = private unnamed_addr constant [45 x i8] c"%s: Failed to send RESPONSE_LAUNCH_TASKS: %m\00", align 1

; Function Attrs: nounwind uwtable
define internal void @_send_launch_failure(ptr noundef %0, ptr noundef %1, i32 noundef %2, i16 noundef zeroext %3) #0 {
  %5 = alloca ptr, align 8
  %6 = alloca ptr, align 8
  %7 = alloca i32, align 4
  %8 = alloca i16, align 2
  %9 = alloca %struct.slurm_msg, align 8
  %10 = alloca %struct.launch_tasks_response_msg, align 8
  %11 = alloca i32, align 4
  %12 = alloca ptr, align 8
  %13 = alloca ptr, align 8
  %14 = alloca i32, align 4
  %15 = alloca i32, align 4
  store ptr %0, ptr %5, align 8
  store ptr %1, ptr %6, align 8
  store i32 %2, ptr %7, align 4
  store i16 %3, ptr %8, align 2
  call void @llvm.lifetime.start.p0(i64 424, ptr %9) #12
  call void @llvm.lifetime.start.p0(i64 64, ptr %10) #12
  call void @llvm.lifetime.start.p0(i64 4, ptr %11) #12
  call void @llvm.lifetime.start.p0(i64 8, ptr %12) #12
  store ptr null, ptr %12, align 8
  call void @llvm.lifetime.start.p0(i64 8, ptr %13) #12
  call void @llvm.lifetime.start.p0(i64 4, ptr %14) #12
  store i32 99, ptr %14, align 4
  %16 = load ptr, ptr %5, align 8
  %17 = getelementptr inbounds nuw %struct.launch_tasks_request_msg, ptr %16, i32 0, i32 21
  %18 = getelementptr inbounds nuw %struct.slurm_step_id_msg, ptr %17, i32 0, i32 3
  %19 = load i32, ptr %18, align 8
  %20 = icmp eq i32 %19, -4
  br i1 %20, label %31, label %21

21:                                               ; preds = %4
  %22 = load ptr, ptr %5, align 8
  %23 = getelementptr inbounds nuw %struct.launch_tasks_request_msg, ptr %22, i32 0, i32 45
  %24 = load ptr, ptr %23, align 8
  %25 = icmp ne ptr %24, null
  br i1 %25, label %26, label %31

26:                                               ; preds = %21
  %27 = load ptr, ptr %5, align 8
  %28 = getelementptr inbounds nuw %struct.launch_tasks_request_msg, ptr %27, i32 0, i32 44
  %29 = load i16, ptr %28, align 8
  %30 = icmp ne i16 %29, 0
  br i1 %30, label %42, label %31

31:                                               ; preds = %26, %21, %4
  br label %32

32:                                               ; preds = %31
  br label %33

33:                                               ; preds = %32
  %34 = call i32 @get_log_level()
  %35 = icmp sge i32 %34, 6
  br i1 %35, label %36, label %37

36:                                               ; preds = %33
  call void (i32, ptr, ...) @log_var(i32 noundef 6, ptr noundef @.str.208, ptr noundef @__func__._send_launch_failure)
  br label %37

37:                                               ; preds = %36, %33
  br label %38

38:                                               ; preds = %37
  br label %39

39:                                               ; preds = %38
  br label %40

40:                                               ; preds = %39
  br label %41

41:                                               ; preds = %40
  store i32 1, ptr %15, align 4
  br label %118

42:                                               ; preds = %26
  %43 = load ptr, ptr %5, align 8
  %44 = getelementptr inbounds nuw %struct.launch_tasks_request_msg, ptr %43, i32 0, i32 69
  %45 = load ptr, ptr %44, align 8
  %46 = load ptr, ptr @conf, align 8
  %47 = getelementptr inbounds nuw %struct.slurmd_config, ptr %46, i32 0, i32 35
  %48 = load ptr, ptr %47, align 8
  %49 = call i32 @nodelist_find(ptr noundef %45, ptr noundef %48)
  store i32 %49, ptr %11, align 4
  %50 = load ptr, ptr @conf, align 8
  %51 = getelementptr inbounds nuw %struct.slurmd_config, ptr %50, i32 0, i32 35
  %52 = load ptr, ptr %51, align 8
  %53 = call ptr @xstrdup(ptr noundef %52)
  store ptr %53, ptr %12, align 8
  %54 = load ptr, ptr %5, align 8
  %55 = getelementptr inbounds nuw %struct.launch_tasks_request_msg, ptr %54, i32 0, i32 66
  %56 = load ptr, ptr %55, align 8
  %57 = call ptr @slurm_cred_get_args(ptr noundef %56)
  store ptr %57, ptr %13, align 8
  %58 = load ptr, ptr %13, align 8
  %59 = getelementptr inbounds nuw %struct.slurm_cred_arg_t, ptr %58, i32 0, i32 1
  %60 = load i32, ptr %59, align 8
  store i32 %60, ptr %14, align 4
  %61 = load ptr, ptr %5, align 8
  %62 = getelementptr inbounds nuw %struct.launch_tasks_request_msg, ptr %61, i32 0, i32 66
  %63 = load ptr, ptr %62, align 8
  call void @slurm_cred_unlock_args(ptr noundef %63)
  br label %64

64:                                               ; preds = %42
  br label %65

65:                                               ; preds = %64
  %66 = call i32 @get_log_level()
  %67 = icmp sge i32 %66, 5
  br i1 %67, label %68, label %71

68:                                               ; preds = %65
  %69 = load i32, ptr %7, align 4
  %70 = call ptr @slurm_strerror(i32 noundef %69)
  call void (i32, ptr, ...) @log_var(i32 noundef 5, ptr noundef @.str.209, ptr noundef %70)
  br label %71

71:                                               ; preds = %68, %65
  br label %72

72:                                               ; preds = %71
  br label %73

73:                                               ; preds = %72
  br label %74

74:                                               ; preds = %73
  br label %75

75:                                               ; preds = %74
  call void @slurm_msg_t_init(ptr noundef %9)
  %76 = getelementptr inbounds nuw %struct.slurm_msg, ptr %9, i32 0, i32 0
  %77 = load ptr, ptr %6, align 8
  call void @llvm.memcpy.p0.p0.i64(ptr align 8 %76, ptr align 8 %77, i64 128, i1 false)
  %78 = getelementptr inbounds nuw %struct.slurm_msg, ptr %9, i32 0, i32 0
  %79 = load ptr, ptr %5, align 8
  %80 = getelementptr inbounds nuw %struct.launch_tasks_request_msg, ptr %79, i32 0, i32 45
  %81 = load ptr, ptr %80, align 8
  %82 = load i32, ptr %11, align 4
  %83 = load ptr, ptr %5, align 8
  %84 = getelementptr inbounds nuw %struct.launch_tasks_request_msg, ptr %83, i32 0, i32 44
  %85 = load i16, ptr %84, align 8
  %86 = zext i16 %85 to i32
  %87 = srem i32 %82, %86
  %88 = sext i32 %87 to i64
  %89 = getelementptr inbounds i16, ptr %81, i64 %88
  %90 = load i16, ptr %89, align 2
  call void @slurm_set_port(ptr noundef %78, i16 noundef zeroext %90)
  %91 = getelementptr inbounds nuw %struct.slurm_msg, ptr %9, i32 0, i32 13
  store ptr %10, ptr %91, align 8
  %92 = getelementptr inbounds nuw %struct.slurm_msg, ptr %9, i32 0, i32 16
  store i16 6002, ptr %92, align 4
  %93 = load i16, ptr %8, align 2
  %94 = getelementptr inbounds nuw %struct.slurm_msg, ptr %9, i32 0, i32 17
  store i16 %93, ptr %94, align 2
  %95 = load i32, ptr %14, align 4
  call void @slurm_msg_set_r_uid(ptr noundef %9, i32 noundef %95)
  %96 = getelementptr inbounds nuw %struct.launch_tasks_response_msg, ptr %10, i32 0, i32 5
  %97 = load ptr, ptr %5, align 8
  %98 = getelementptr inbounds nuw %struct.launch_tasks_request_msg, ptr %97, i32 0, i32 21
  call void @llvm.memcpy.p0.p0.i64(ptr align 8 %96, ptr align 8 %98, i64 24, i1 false)
  %99 = load ptr, ptr %12, align 8
  %100 = getelementptr inbounds nuw %struct.launch_tasks_response_msg, ptr %10, i32 0, i32 1
  store ptr %99, ptr %100, align 8
  %101 = load i32, ptr %7, align 4
  %102 = icmp ne i32 %101, 0
  br i1 %102, label %103, label %105

103:                                              ; preds = %75
  %104 = load i32, ptr %7, align 4
  br label %106

105:                                              ; preds = %75
  br label %106

106:                                              ; preds = %105, %103
  %107 = phi i32 [ %104, %103 ], [ -1, %105 ]
  %108 = getelementptr inbounds nuw %struct.launch_tasks_response_msg, ptr %10, i32 0, i32 0
  store i32 %107, ptr %108, align 8
  %109 = getelementptr inbounds nuw %struct.launch_tasks_response_msg, ptr %10, i32 0, i32 3
  store i32 0, ptr %109, align 4
  %110 = load ptr, ptr %5, align 8
  %111 = getelementptr inbounds nuw %struct.launch_tasks_request_msg, ptr %110, i32 0, i32 12
  %112 = load i32, ptr %111, align 4
  %113 = call i32 @_send_srun_resp_msg(ptr noundef %9, i32 noundef %112)
  %114 = icmp ne i32 %113, 0
  br i1 %114, label %115, label %117

115:                                              ; preds = %106
  %116 = call i32 (ptr, ...) @error(ptr noundef @.str.210, ptr noundef @__func__._send_launch_failure)
  br label %117

117:                                              ; preds = %115, %106
  call void @slurm_xfree(ptr noundef %12)
  store i32 1, ptr %15, align 4
  br label %118

118:                                              ; preds = %117, %41
  call void @llvm.lifetime.end.p0(i64 4, ptr %14) #12
  call void @llvm.lifetime.end.p0(i64 8, ptr %13) #12
  call void @llvm.lifetime.end.p0(i64 8, ptr %12) #12
  call void @llvm.lifetime.end.p0(i64 4, ptr %11) #12
  call void @llvm.lifetime.end.p0(i64 64, ptr %10) #12
  call void @llvm.lifetime.end.p0(i64 424, ptr %9) #12
  ret void
}

; Function Attrs: nounwind uwtable
define dso_local ptr @mgr_launch_tasks_setup(ptr noundef %0, ptr noundef %1, i16 noundef zeroext %2) #0 {
  %4 = alloca ptr, align 8
  %5 = alloca ptr, align 8
  %6 = alloca ptr, align 8
  %7 = alloca i16, align 2
  %8 = alloca ptr, align 8
  %9 = alloca i32, align 4
  %10 = alloca i32, align 4
  store ptr %0, ptr %5, align 8
  store ptr %1, ptr %6, align 8
  store i16 %2, ptr %7, align 2
  call void @llvm.lifetime.start.p0(i64 8, ptr %8) #12
  store ptr null, ptr %8, align 8
  %11 = load ptr, ptr %5, align 8
  %12 = load i16, ptr %7, align 2
  %13 = call ptr @stepd_step_rec_create(ptr noundef %11, i16 noundef zeroext %12)
  store ptr %13, ptr %8, align 8
  %14 = icmp ne ptr %13, null
  br i1 %14, label %25, label %15

15:                                               ; preds = %3
  call void @llvm.lifetime.start.p0(i64 4, ptr %9) #12
  %16 = call ptr @__errno_location() #13
  %17 = load i32, ptr %16, align 4
  store i32 %17, ptr %9, align 4
  %18 = load ptr, ptr %5, align 8
  %19 = load ptr, ptr %6, align 8
  %20 = call ptr @__errno_location() #13
  %21 = load i32, ptr %20, align 4
  %22 = load i16, ptr %7, align 2
  call void @_send_launch_failure(ptr noundef %18, ptr noundef %19, i32 noundef %21, i16 noundef zeroext %22)
  %23 = load i32, ptr %9, align 4
  %24 = call ptr @__errno_location() #13
  store i32 %23, ptr %24, align 4
  store ptr null, ptr %4, align 8
  store i32 1, ptr %10, align 4
  call void @llvm.lifetime.end.p0(i64 4, ptr %9) #12
  br label %55

25:                                               ; preds = %3
  %26 = load ptr, ptr %6, align 8
  %27 = load ptr, ptr %8, align 8
  %28 = getelementptr inbounds nuw %struct.stepd_step_rec_t, ptr %27, i32 0, i32 81
  %29 = load ptr, ptr %28, align 8
  %30 = getelementptr inbounds nuw %struct.env_options, ptr %29, i32 0, i32 21
  store ptr %26, ptr %30, align 8
  %31 = load ptr, ptr %5, align 8
  %32 = getelementptr inbounds nuw %struct.launch_tasks_request_msg, ptr %31, i32 0, i32 41
  %33 = load i16, ptr %32, align 8
  %34 = load ptr, ptr %8, align 8
  %35 = getelementptr inbounds nuw %struct.stepd_step_rec_t, ptr %34, i32 0, i32 41
  store i16 %33, ptr %35, align 8
  %36 = load ptr, ptr %5, align 8
  %37 = getelementptr inbounds nuw %struct.launch_tasks_request_msg, ptr %36, i32 0, i32 42
  %38 = load ptr, ptr %37, align 8
  %39 = call ptr @xstrdup(ptr noundef %38)
  %40 = load ptr, ptr %8, align 8
  %41 = getelementptr inbounds nuw %struct.stepd_step_rec_t, ptr %40, i32 0, i32 92
  store ptr %39, ptr %41, align 8
  %42 = load ptr, ptr %5, align 8
  %43 = getelementptr inbounds nuw %struct.launch_tasks_request_msg, ptr %42, i32 0, i32 43
  %44 = load ptr, ptr %43, align 8
  %45 = call ptr @xstrdup(ptr noundef %44)
  %46 = load ptr, ptr %8, align 8
  %47 = getelementptr inbounds nuw %struct.stepd_step_rec_t, ptr %46, i32 0, i32 93
  store ptr %45, ptr %47, align 8
  %48 = load ptr, ptr %5, align 8
  %49 = getelementptr inbounds nuw %struct.launch_tasks_request_msg, ptr %48, i32 0, i32 82
  %50 = load ptr, ptr %49, align 8
  %51 = call ptr @xstrdup(ptr noundef %50)
  %52 = load ptr, ptr %8, align 8
  %53 = getelementptr inbounds nuw %struct.stepd_step_rec_t, ptr %52, i32 0, i32 109
  store ptr %51, ptr %53, align 8
  %54 = load ptr, ptr %8, align 8
  store ptr %54, ptr %4, align 8
  store i32 1, ptr %10, align 4
  br label %55

55:                                               ; preds = %25, %15
  call void @llvm.lifetime.end.p0(i64 8, ptr %8) #12
  %56 = load ptr, ptr %4, align 8
  ret ptr %56
}