; Function Attrs: nounwind uwtable
define dso_local ptr @mgr_launch_tasks_setup(ptr noundef %0, ptr noundef %1, i16 noundef zeroext %2) local_unnamed_addr #0 {
  %4 = alloca %struct.slurm_msg, align 8
  %5 = alloca %struct.launch_tasks_response_msg, align 8
  %6 = alloca ptr, align 8
  %7 = tail call ptr @stepd_step_rec_create(ptr noundef %0, i16 noundef zeroext %2) #17
  %.not = icmp eq ptr %7, null
  br i1 %.not, label %8, label %67

8:                                                ; preds = %3
  %9 = tail call ptr @__errno_location() #18
  %10 = load i32, ptr %9, align 4
  call void @llvm.lifetime.start.p0(i64 424, ptr nonnull %4) #17
  call void @llvm.lifetime.start.p0(i64 64, ptr nonnull %5) #17
  call void @llvm.lifetime.start.p0(i64 8, ptr nonnull %6) #17
  %11 = getelementptr inbounds nuw i8, ptr %0, i64 104
  %12 = getelementptr inbounds nuw i8, ptr %0, i64 120
  %13 = load i32, ptr %12, align 8
  %14 = icmp eq i32 %13, -4
  br i1 %14, label %21, label %15

15:                                               ; preds = %8
  %16 = getelementptr inbounds nuw i8, ptr %0, i64 296
  %17 = load ptr, ptr %16, align 8
  %.not.i = icmp eq ptr %17, null
  br i1 %.not.i, label %21, label %18

18:                                               ; preds = %15
  %19 = getelementptr inbounds nuw i8, ptr %0, i64 288
  %20 = load i16, ptr %19, align 8
  %.not17.i = icmp eq i16 %20, 0
  br i1 %.not17.i, label %21, label %25

21:                                               ; preds = %18, %15, %8
  %22 = tail call i32 @get_log_level() #17
  %23 = icmp sgt i32 %22, 5
  br i1 %23, label %24, label %_send_launch_failure.exit

24:                                               ; preds = %21
  tail call void (i32, ptr, ...) @log_var(i32 noundef 6, ptr noundef nonnull @.str.208, ptr noundef nonnull @__func__._send_launch_failure) #17
  br label %_send_launch_failure.exit

25:                                               ; preds = %18
  %26 = getelementptr inbounds nuw i8, ptr %0, i64 576
  %27 = load ptr, ptr %26, align 8
  %28 = load ptr, ptr @conf, align 8
  %29 = getelementptr inbounds nuw i8, ptr %28, i64 4272
  %30 = load ptr, ptr %29, align 8
  %31 = tail call i32 @nodelist_find(ptr noundef %27, ptr noundef %30) #17
  %32 = load ptr, ptr @conf, align 8
  %33 = getelementptr inbounds nuw i8, ptr %32, i64 4272
  %34 = load ptr, ptr %33, align 8
  %35 = tail call ptr @xstrdup(ptr noundef %34) #17
  store ptr %35, ptr %6, align 8
  %36 = getelementptr inbounds nuw i8, ptr %0, i64 552
  %37 = load ptr, ptr %36, align 8
  %38 = tail call ptr @slurm_cred_get_args(ptr noundef %37) #17
  %39 = getelementptr inbounds nuw i8, ptr %38, i64 24
  %40 = load i32, ptr %39, align 8
  %41 = load ptr, ptr %36, align 8
  tail call void @slurm_cred_unlock_args(ptr noundef %41) #17
  %42 = tail call i32 @get_log_level() #17
  %43 = icmp sgt i32 %42, 4
  br i1 %43, label %44, label %46

44:                                               ; preds = %25
  %45 = tail call ptr @slurm_strerror(i32 noundef %10) #17
  tail call void (i32, ptr, ...) @log_var(i32 noundef 5, ptr noundef nonnull @.str.209, ptr noundef %45) #17
  br label %46

46:                                               ; preds = %44, %25
  call void @slurm_msg_t_init(ptr noundef nonnull %4) #17
  call void @llvm.memcpy.p0.p0.i64(ptr noundef nonnull align 8 dereferenceable(128) %4, ptr noundef nonnull readonly align 8 dereferenceable(128) %1, i64 128, i1 false)
  %47 = load ptr, ptr %16, align 8
  %48 = load i16, ptr %19, align 8
  %49 = zext i16 %48 to i32
  %50 = srem i32 %31, %49
  %51 = sext i32 %50 to i64
  %52 = getelementptr inbounds i16, ptr %47, i64 %51
  %53 = load i16, ptr %52, align 2
  call void @slurm_set_port(ptr noundef nonnull %4, i16 noundef zeroext %53) #17
  %54 = getelementptr inbounds nuw i8, ptr %4, i64 200
  store ptr %5, ptr %54, align 8
  %55 = getelementptr inbounds nuw i8, ptr %4, i64 212
  store i16 6002, ptr %55, align 4
  %56 = getelementptr inbounds nuw i8, ptr %4, i64 214
  store i16 %2, ptr %56, align 2
  call void @slurm_msg_set_r_uid(ptr noundef nonnull %4, i32 noundef %40) #17
  %57 = getelementptr inbounds nuw i8, ptr %5, i64 32
  call void @llvm.memcpy.p0.p0.i64(ptr noundef nonnull align 8 dereferenceable(24) %57, ptr noundef nonnull readonly align 8 dereferenceable(24) %11, i64 24, i1 false)
  %58 = getelementptr inbounds nuw i8, ptr %5, i64 8
  store ptr %35, ptr %58, align 8
  %.not18.i = icmp eq i32 %10, 0
  %59 = select i1 %.not18.i, i32 -1, i32 %10
  store i32 %59, ptr %5, align 8
  %60 = getelementptr inbounds nuw i8, ptr %5, i64 20
  store i32 0, ptr %60, align 4
  %61 = getelementptr inbounds nuw i8, ptr %0, i64 68
  %62 = load i32, ptr %61, align 4
  %63 = call fastcc i32 @_send_srun_resp_msg(ptr noundef %4, i32 noundef %62)
  %.not19.i = icmp eq i32 %63, 0
  br i1 %.not19.i, label %66, label %64

64:                                               ; preds = %46
  %65 = call i32 (ptr, ...) @error(ptr noundef nonnull @.str.210, ptr noundef nonnull @__func__._send_launch_failure) #17
  br label %66

66:                                               ; preds = %64, %46
  call void @slurm_xfree(ptr noundef nonnull %6) #17
  br label %_send_launch_failure.exit

_send_launch_failure.exit:                        ; preds = %21, %24, %66
  call void @llvm.lifetime.end.p0(i64 8, ptr nonnull %6) #17
  call void @llvm.lifetime.end.p0(i64 64, ptr nonnull %5) #17
  call void @llvm.lifetime.end.p0(i64 424, ptr nonnull %4) #17
  store i32 %10, ptr %9, align 4
  br label %86

67:                                               ; preds = %3
  %68 = getelementptr inbounds nuw i8, ptr %7, i64 688
  %69 = load ptr, ptr %68, align 8
  %70 = getelementptr inbounds nuw i8, ptr %69, i64 112
  store ptr %1, ptr %70, align 8
  %71 = getelementptr inbounds nuw i8, ptr %0, i64 264
  %72 = load i16, ptr %71, align 8
  %73 = getelementptr inbounds nuw i8, ptr %7, i64 352
  store i16 %72, ptr %73, align 8
  %74 = getelementptr inbounds nuw i8, ptr %0, i64 272
  %75 = load ptr, ptr %74, align 8
  %76 = tail call ptr @xstrdup(ptr noundef %75) #17
  %77 = getelementptr inbounds nuw i8, ptr %7, i64 776
  store ptr %76, ptr %77, align 8
  %78 = getelementptr inbounds nuw i8, ptr %0, i64 280
  %79 = load ptr, ptr %78, align 8
  %80 = tail call ptr @xstrdup(ptr noundef %79) #17
  %81 = getelementptr inbounds nuw i8, ptr %7, i64 784
  store ptr %80, ptr %81, align 8
  %82 = getelementptr inbounds nuw i8, ptr %0, i64 680
  %83 = load ptr, ptr %82, align 8
  %84 = tail call ptr @xstrdup(ptr noundef %83) #17
  %85 = getelementptr inbounds nuw i8, ptr %7, i64 896
  store ptr %84, ptr %85, align 8
  br label %86

86:                                               ; preds = %67, %_send_launch_failure.exit
  ret ptr %7
}